; Function Attrs: mustprogress nounwind uwtable
define dso_local noundef zeroext i1 @_ZN5vcpkgneERKNS_7VersionES2_(ptr noundef nonnull align 8 dereferenceable(36) %0, ptr noundef nonnull align 8 dereferenceable(36) %1) local_unnamed_addr #0 personality ptr @__gxx_personality_v0 {
  %3 = tail call noundef i64 @_ZNKSt7__cxx1112basic_stringIcSt11char_traitsIcESaIcEE4sizeEv(ptr noundef nonnull align 8 dereferenceable(32) %0) #19
  %4 = tail call noundef i64 @_ZNKSt7__cxx1112basic_stringIcSt11char_traitsIcESaIcEE4sizeEv(ptr noundef nonnull align 8 dereferenceable(32) %1) #19
  %5 = icmp eq i64 %3, %4
  br i1 %5, label %6, label %_ZN5vcpkgeqERKNS_7VersionES2_.exit

6:                                                ; preds = %2
  %7 = tail call noundef ptr @_ZNKSt7__cxx1112basic_stringIcSt11char_traitsIcESaIcEE4dataEv(ptr noundef nonnull align 8 dereferenceable(32) %0) #19
  %8 = tail call noundef ptr @_ZNKSt7__cxx1112basic_stringIcSt11char_traitsIcESaIcEE4dataEv(ptr noundef nonnull align 8 dereferenceable(32) %1) #19
  %9 = tail call noundef i64 @_ZNKSt7__cxx1112basic_stringIcSt11char_traitsIcESaIcEE4sizeEv(ptr noundef nonnull align 8 dereferenceable(32) %0) #19
  %10 = icmp eq i64 %9, 0
  br i1 %10, label %_ZN5vcpkgeqERKNS_7VersionES2_.exit, label %11

11:                                               ; preds = %6
  %bcmp.i.i = tail call i32 @bcmp(ptr %7, ptr %8, i64 %9)
  %12 = icmp ne i32 %bcmp.i.i, 0
  br label %_ZN5vcpkgeqERKNS_7VersionES2_.exit

_ZN5vcpkgeqERKNS_7VersionES2_.exit:               ; preds = %2, %6, %11
  %not. = phi i1 [ true, %2 ], [ %12, %11 ], [ false, %6 ]
  %13 = getelementptr inbounds i8, ptr %0, i64 32
  %14 = load i32, ptr %13, align 8
  %15 = getelementptr inbounds i8, ptr %1, i64 32
  %16 = load i32, ptr %15, align 8
  %17 = icmp ne i32 %14, %16
  %18 = select i1 %not., i1 true, i1 %17
  ret i1 %18
}